target datalayout = "e-m:e-p270:32:32-p271:32:32-p272:64:64-i64:64-i128:128-f80:128-n8:16:32:64-S128"
target triple = "x86_64-pc-linux-gnu"

%"class.arrow::SmallBasicDecimal.6" = type { i64 }
%"class.arrow::BasicDecimal64" = type { %"class.arrow::SmallBasicDecimal.6" }

; Function Attrs: mustprogress nounwind uwtable
define linkonce_odr noundef i64 @_ZN5arrow8internal16SafeSignedNegateIlEET_S2_(i64 noundef %0) #0 comdat {
  %2 = alloca i64, align 8
  store i64 %0, ptr %2, align 8, !tbaa !8
  %3 = load i64, ptr %2, align 8, !tbaa !8
  %4 = xor i64 %3, -1
  %5 = add i64 %4, 1
  ret i64 %5
}

; Function Attrs: mustprogress nounwind uwtable
define linkonce_odr void @_ZN5arrow17SmallBasicDecimalIlEC2IiiEET_(ptr noundef nonnull align 8 dereferenceable(8) %0, i32 noundef %1) unnamed_addr #0 comdat align 2 {
  %3 = alloca ptr, align 8
  %4 = alloca i32, align 4
  store ptr %0, ptr %3, align 8, !tbaa !34
  store i32 %1, ptr %4, align 4, !tbaa !30
  %5 = load ptr, ptr %3, align 8
  %6 = getelementptr inbounds nuw %"class.arrow::SmallBasicDecimal.6", ptr %5, i32 0, i32 0
  %7 = load i32, ptr %4, align 4, !tbaa !30
  %8 = sext i32 %7 to i64
  store i64 %8, ptr %6, align 8, !tbaa !36
  ret void
}

; Function Attrs: mustprogress nounwind uwtable
define linkonce_odr void @_ZN5arrow17SmallBasicDecimalIlEC2IllEET_(ptr noundef nonnull align 8 dereferenceable(8) %0, i64 noundef %1) unnamed_addr #0 comdat align 2 {
  %3 = alloca ptr, align 8
  %4 = alloca i64, align 8
  store ptr %0, ptr %3, align 8, !tbaa !34
  store i64 %1, ptr %4, align 8, !tbaa !8
  %5 = load ptr, ptr %3, align 8
  %6 = getelementptr inbounds nuw %"class.arrow::SmallBasicDecimal.6", ptr %5, i32 0, i32 0
  %7 = load i64, ptr %4, align 8, !tbaa !8
  store i64 %7, ptr %6, align 8, !tbaa !36
  ret void
}

; Function Attrs: mustprogress nounwind uwtable
define weak_odr noundef i64 @_ZNK5arrow17SmallBasicDecimalIlE5valueEv(ptr noundef nonnull align 8 dereferenceable(8) %0) #0 comdat align 2 {
  %2 = alloca ptr, align 8
  store ptr %0, ptr %2, align 8, !tbaa !34
  %3 = load ptr, ptr %2, align 8
  %4 = getelementptr inbounds nuw %"class.arrow::SmallBasicDecimal.6", ptr %3, i32 0, i32 0
  %5 = load i64, ptr %4, align 8, !tbaa !36
  ret i64 %5
}

; Function Attrs: mustprogress uwtable
define noundef nonnull align 8 dereferenceable(8) ptr @_ZN5arrow14BasicDecimal646NegateEv(ptr noundef nonnull align 8 dereferenceable(8) %0) #6 align 2 {
  %2 = alloca ptr, align 8
  store ptr %0, ptr %2, align 8, !tbaa !92
  %3 = load ptr, ptr %2, align 8
  %4 = getelementptr inbounds nuw %"class.arrow::SmallBasicDecimal.6", ptr %3, i32 0, i32 0
  %5 = load i64, ptr %4, align 8, !tbaa !36
  %6 = call noundef i64 @_ZN5arrow8internal16SafeSignedNegateIlEET_S2_(i64 noundef %5)
  %7 = getelementptr inbounds nuw %"class.arrow::SmallBasicDecimal.6", ptr %3, i32 0, i32 0
  store i64 %6, ptr %7, align 8, !tbaa !36
  ret ptr %3
}

; Function Attrs: mustprogress nounwind uwtable
define noundef zeroext i1 @_ZN5arrowltERKNS_14BasicDecimal64ES2_(ptr noundef nonnull align 8 dereferenceable(8) %0, ptr noundef nonnull align 8 dereferenceable(8) %1) #0 {
  %3 = alloca ptr, align 8
  %4 = alloca ptr, align 8
  store ptr %0, ptr %3, align 8, !tbaa !92
  store ptr %1, ptr %4, align 8, !tbaa !92
  %5 = load ptr, ptr %3, align 8, !tbaa !92
  %6 = call noundef i64 @_ZNK5arrow17SmallBasicDecimalIlE5valueEv(ptr noundef nonnull align 8 dereferenceable(8) %5)
  %7 = load ptr, ptr %4, align 8, !tbaa !92
  %8 = call noundef i64 @_ZNK5arrow17SmallBasicDecimalIlE5valueEv(ptr noundef nonnull align 8 dereferenceable(8) %7)
  %9 = icmp slt i64 %6, %8
  ret i1 %9
}

; Function Attrs: inlinehint mustprogress nounwind uwtable
define linkonce_odr void @_ZN5arrow14BasicDecimal64CI2NS_17SmallBasicDecimalIlEEIiiEET_(ptr noundef nonnull align 8 dereferenceable(8) %0, i32 noundef %1) unnamed_addr #3 comdat align 2 {
  %3 = alloca ptr, align 8
  %4 = alloca i32, align 4
  store ptr %0, ptr %3, align 8, !tbaa !92
  store i32 %1, ptr %4, align 4, !tbaa !30
  %5 = load ptr, ptr %3, align 8
  %6 = load i32, ptr %4, align 4, !tbaa !30
  call void @_ZN5arrow17SmallBasicDecimalIlEC2IiiEET_(ptr noundef nonnull align 8 dereferenceable(8) %5, i32 noundef %6) #12
  ret void
}

; Function Attrs: mustprogress nounwind uwtable
define weak_odr void @_ZN5arrow17SmallBasicDecimalIlEC2Ev(ptr noundef nonnull align 8 dereferenceable(8) %0) unnamed_addr #0 comdat($_ZN5arrow17SmallBasicDecimalIlEC5Ev) align 2 {
  %2 = alloca ptr, align 8
  store ptr %0, ptr %2, align 8, !tbaa !34
  %3 = load ptr, ptr %2, align 8
  %4 = getelementptr inbounds nuw %"class.arrow::SmallBasicDecimal.6", ptr %3, i32 0, i32 0
  store i64 0, ptr %4, align 8, !tbaa !36
  ret void
}

; Function Attrs: mustprogress nounwind uwtable
define linkonce_odr noundef nonnull align 8 dereferenceable(8) ptr @_ZN5arrow14BasicDecimal64pLERKS0_(ptr noundef nonnull align 8 dereferenceable(8) %0, ptr noundef nonnull align 8 dereferenceable(8) %1) #0 comdat align 2 {
  %3 = alloca ptr, align 8
  %4 = alloca ptr, align 8
  store ptr %0, ptr %3, align 8, !tbaa !92
  store ptr %1, ptr %4, align 8, !tbaa !92
  %5 = load ptr, ptr %3, align 8
  %6 = load ptr, ptr %4, align 8, !tbaa !92
  %7 = getelementptr inbounds nuw %"class.arrow::SmallBasicDecimal.6", ptr %6, i32 0, i32 0
  %8 = load i64, ptr %7, align 8, !tbaa !36
  %9 = getelementptr inbounds nuw %"class.arrow::SmallBasicDecimal.6", ptr %5, i32 0, i32 0
  %10 = load i64, ptr %9, align 8, !tbaa !36
  %11 = add nsw i64 %10, %8
  store i64 %11, ptr %9, align 8, !tbaa !36
  ret ptr %5
}

; Function Attrs: inlinehint mustprogress nounwind uwtable
define linkonce_odr void @_ZN5arrow14BasicDecimal64CI2NS_17SmallBasicDecimalIlEEIllEET_(ptr noundef nonnull align 8 dereferenceable(8) %0, i64 noundef %1) unnamed_addr #3 comdat align 2 {
  %3 = alloca ptr, align 8
  %4 = alloca i64, align 8
  store ptr %0, ptr %3, align 8, !tbaa !92
  store i64 %1, ptr %4, align 8, !tbaa !8
  %5 = load ptr, ptr %3, align 8
  %6 = load i64, ptr %4, align 8, !tbaa !8
  call void @_ZN5arrow17SmallBasicDecimalIlEC2IllEET_(ptr noundef nonnull align 8 dereferenceable(8) %5, i64 noundef %6) #12
  ret void
}

; Function Attrs: mustprogress nounwind uwtable
define weak_odr noundef i64 @_ZNK5arrow17SmallBasicDecimalIlE4SignEv(ptr noundef nonnull align 8 dereferenceable(8) %0) #0 comdat align 2 {
  %2 = alloca ptr, align 8
  store ptr %0, ptr %2, align 8, !tbaa !34
  %3 = load ptr, ptr %2, align 8
  %4 = getelementptr inbounds nuw %"class.arrow::SmallBasicDecimal.6", ptr %3, i32 0, i32 0
  %5 = load i64, ptr %4, align 8, !tbaa !36
  %6 = ashr i64 %5, 63
  %7 = or i64 1, %6
  ret i64 %7
}

; Function Attrs: mustprogress nounwind uwtable
define noundef zeroext i1 @_ZN5arrowgeERKNS_14BasicDecimal64ES2_(ptr noundef nonnull align 8 dereferenceable(8) %0, ptr noundef nonnull align 8 dereferenceable(8) %1) #0 {
  %3 = alloca ptr, align 8
  %4 = alloca ptr, align 8
  store ptr %0, ptr %3, align 8, !tbaa !92
  store ptr %1, ptr %4, align 8, !tbaa !92
  %5 = load ptr, ptr %3, align 8, !tbaa !92
  %6 = call noundef i64 @_ZNK5arrow17SmallBasicDecimalIlE5valueEv(ptr noundef nonnull align 8 dereferenceable(8) %5)
  %7 = load ptr, ptr %4, align 8, !tbaa !92
  %8 = call noundef i64 @_ZNK5arrow17SmallBasicDecimalIlE5valueEv(ptr noundef nonnull align 8 dereferenceable(8) %7)
  %9 = icmp sge i64 %6, %8
  ret i1 %9
}

; Function Attrs: mustprogress uwtable
define linkonce_odr noundef nonnull align 8 dereferenceable(8) ptr @_ZN5arrow14BasicDecimal643AbsEv(ptr noundef nonnull align 8 dereferenceable(8) %0) #6 comdat align 2 {
  %2 = alloca ptr, align 8
  %3 = alloca %"class.arrow::BasicDecimal64", align 8
  store ptr %0, ptr %2, align 8, !tbaa !92
  %4 = load ptr, ptr %2, align 8
  call void @llvm.lifetime.start.p0(i64 8, ptr %3) #12
  call void @_ZN5arrow14BasicDecimal64CI2NS_17SmallBasicDecimalIlEEIiiEET_(ptr noundef nonnull align 8 dereferenceable(8) %3, i32 noundef 0) #12
  %5 = call noundef zeroext i1 @_ZN5arrowltERKNS_14BasicDecimal64ES2_(ptr noundef nonnull align 8 dereferenceable(8) %4, ptr noundef nonnull align 8 dereferenceable(8) %3)
  br i1 %5, label %6, label %8

6:                                                ; preds = %1
  %7 = call noundef nonnull align 8 dereferenceable(8) ptr @_ZN5arrow14BasicDecimal646NegateEv(ptr noundef nonnull align 8 dereferenceable(8) %4)
  br label %9

8:                                                ; preds = %1
  br label %9

9:                                                ; preds = %8, %6
  %10 = phi ptr [ %7, %6 ], [ %4, %8 ]
  call void @llvm.lifetime.end.p0(i64 8, ptr %3) #12
  ret ptr %10
}

; Function Attrs: mustprogress nounwind uwtable
define linkonce_odr noundef ptr @_ZN5arrow13DecimalTraitsINS_14BasicDecimal64EE18half_powers_of_tenEv() #0 comdat align 2 {
  ret ptr @_ZN5arrowL25kDecimal64HalfPowersOfTenE
}

; Function Attrs: mustprogress nounwind uwtable
define noundef i32 @_ZNK5arrow14BasicDecimal646DivideERKS0_PS0_S3_(ptr noundef nonnull align 8 dereferenceable(8) %0, ptr noundef nonnull align 8 dereferenceable(8) %1, ptr noundef %2, ptr noundef %3) #0 align 2 {
  %5 = alloca i32, align 4
  %6 = alloca ptr, align 8
  %7 = alloca ptr, align 8
  %8 = alloca ptr, align 8
  %9 = alloca ptr, align 8
  %10 = alloca %"class.arrow::BasicDecimal64", align 8
  %11 = alloca %"class.arrow::BasicDecimal64", align 8
  store ptr %0, ptr %6, align 8, !tbaa !92
  store ptr %1, ptr %7, align 8, !tbaa !92
  store ptr %2, ptr %8, align 8, !tbaa !92
  store ptr %3, ptr %9, align 8, !tbaa !92
  %12 = load ptr, ptr %6, align 8
  %13 = load ptr, ptr %7, align 8, !tbaa !92
  %14 = getelementptr inbounds nuw %"class.arrow::SmallBasicDecimal.6", ptr %13, i32 0, i32 0
  %15 = load i64, ptr %14, align 8, !tbaa !36
  %16 = icmp eq i64 %15, 0
  br i1 %16, label %17, label %18

17:                                               ; preds = %4
  store i32 1, ptr %5, align 4
  br label %37

18:                                               ; preds = %4
  call void @llvm.lifetime.start.p0(i64 8, ptr %10) #12
  %19 = getelementptr inbounds nuw %"class.arrow::SmallBasicDecimal.6", ptr %12, i32 0, i32 0
  %20 = load i64, ptr %19, align 8, !tbaa !36
  %21 = load ptr, ptr %7, align 8, !tbaa !92
  %22 = getelementptr inbounds nuw %"class.arrow::SmallBasicDecimal.6", ptr %21, i32 0, i32 0
  %23 = load i64, ptr %22, align 8, !tbaa !36
  %24 = sdiv i64 %20, %23
  call void @_ZN5arrow14BasicDecimal64CI2NS_17SmallBasicDecimalIlEEIllEET_(ptr noundef nonnull align 8 dereferenceable(8) %10, i64 noundef %24) #12
  %25 = load ptr, ptr %8, align 8, !tbaa !92
  call void @llvm.memcpy.p0.p0.i64(ptr align 8 %25, ptr align 8 %10, i64 8, i1 false)
  call void @llvm.lifetime.end.p0(i64 8, ptr %10) #12
  %26 = load ptr, ptr %9, align 8, !tbaa !92
  %27 = icmp ne ptr %26, null
  br i1 %27, label %28, label %36

28:                                               ; preds = %18
  call void @llvm.lifetime.start.p0(i64 8, ptr %11) #12
  %29 = getelementptr inbounds nuw %"class.arrow::SmallBasicDecimal.6", ptr %12, i32 0, i32 0
  %30 = load i64, ptr %29, align 8, !tbaa !36
  %31 = load ptr, ptr %7, align 8, !tbaa !92
  %32 = getelementptr inbounds nuw %"class.arrow::SmallBasicDecimal.6", ptr %31, i32 0, i32 0
  %33 = load i64, ptr %32, align 8, !tbaa !36
  %34 = srem i64 %30, %33
  call void @_ZN5arrow14BasicDecimal64CI2NS_17SmallBasicDecimalIlEEIllEET_(ptr noundef nonnull align 8 dereferenceable(8) %11, i64 noundef %34) #12
  %35 = load ptr, ptr %9, align 8, !tbaa !92
  call void @llvm.memcpy.p0.p0.i64(ptr align 8 %35, ptr align 8 %11, i64 8, i1 false)
  call void @llvm.lifetime.end.p0(i64 8, ptr %11) #12
  br label %36

36:                                               ; preds = %28, %18
  store i32 0, ptr %5, align 4
  br label %37

37:                                               ; preds = %36, %17
  %38 = load i32, ptr %5, align 4
  ret i32 %38
}

; Function Attrs: inlinehint mustprogress nounwind uwtable
define linkonce_odr void @_ZN5arrow14BasicDecimal64C2Ev(ptr noundef nonnull align 8 dereferenceable(8) %0) unnamed_addr #3 comdat align 2 {
  %2 = alloca ptr, align 8
  store ptr %0, ptr %2, align 8, !tbaa !92
  %3 = load ptr, ptr %2, align 8
  call void @_ZN5arrow17SmallBasicDecimalIlEC2Ev(ptr noundef nonnull align 8 dereferenceable(8) %3) #12
  ret void
}

; Function Attrs: mustprogress nounwind uwtable
define linkonce_odr noundef ptr @_ZN5arrow13DecimalTraitsINS_14BasicDecimal64EE13powers_of_tenEv() #0 comdat align 2 {
  ret ptr @_ZN5arrowL21kDecimal64PowersOfTenE
}

; Function Attrs: mustprogress uwtable
define i64 @_ZNK5arrow14BasicDecimal6413ReduceScaleByEib(ptr noundef nonnull align 8 dereferenceable(8) %0, i32 noundef %1, i1 noundef zeroext %2) #6 align 2 {
  %4 = alloca %"class.arrow::BasicDecimal64", align 8
  %5 = alloca ptr, align 8
  %6 = alloca i32, align 4
  %7 = alloca i8, align 1
  %8 = alloca %"class.arrow::BasicDecimal64", align 8
  %9 = alloca %"class.arrow::BasicDecimal64", align 8
  %10 = alloca i32, align 4
  %11 = alloca %"class.arrow::BasicDecimal64", align 8
  %12 = alloca %"class.arrow::BasicDecimal64", align 8
  store ptr %0, ptr %5, align 8, !tbaa !92
  store i32 %1, ptr %6, align 4, !tbaa !30
  %13 = zext i1 %2 to i8
  store i8 %13, ptr %7, align 1, !tbaa !67
  %14 = load ptr, ptr %5, align 8
  br label %15

15:                                               ; preds = %16, %3
  br i1 false, label %16, label %17

16:                                               ; preds = %15
  br label %15, !llvm.loop !115

17:                                               ; preds = %15
  br label %18

18:                                               ; preds = %19, %17
  br i1 false, label %19, label %20

19:                                               ; preds = %18
  br label %18, !llvm.loop !116

20:                                               ; preds = %18
  br label %21

21:                                               ; preds = %22, %20
  br i1 false, label %22, label %23

22:                                               ; preds = %21
  br label %21, !llvm.loop !117

23:                                               ; preds = %21
  br label %24

24:                                               ; preds = %25, %23
  br i1 false, label %25, label %26

25:                                               ; preds = %24
  br label %24, !llvm.loop !118

26:                                               ; preds = %24
  br label %27

27:                                               ; preds = %28, %26
  br i1 false, label %28, label %29

28:                                               ; preds = %27
  br label %27, !llvm.loop !119

29:                                               ; preds = %27
  br label %30

30:                                               ; preds = %31, %29
  br i1 false, label %31, label %32

31:                                               ; preds = %30
  br label %30, !llvm.loop !120

32:                                               ; preds = %30
  %33 = load i32, ptr %6, align 4, !tbaa !30
  %34 = icmp eq i32 %33, 0
  br i1 %34, label %35, label %36

35:                                               ; preds = %32
  call void @llvm.memcpy.p0.p0.i64(ptr align 8 %4, ptr align 8 %14, i64 8, i1 false)
  br label %65

36:                                               ; preds = %32
  call void @llvm.lifetime.start.p0(i64 8, ptr %8) #12
  %37 = call noundef ptr @_ZN5arrow13DecimalTraitsINS_14BasicDecimal64EE13powers_of_tenEv()
  %38 = load i32, ptr %6, align 4, !tbaa !30
  %39 = sext i32 %38 to i64
  %40 = getelementptr inbounds %"class.arrow::BasicDecimal64", ptr %37, i64 %39
  call void @llvm.memcpy.p0.p0.i64(ptr align 8 %8, ptr align 8 %40, i64 8, i1 false)
  call void @_ZN5arrow14BasicDecimal64C2Ev(ptr noundef nonnull align 8 dereferenceable(8) %4) #12
  call void @llvm.lifetime.start.p0(i64 8, ptr %9) #12
  call void @_ZN5arrow14BasicDecimal64C2Ev(ptr noundef nonnull align 8 dereferenceable(8) %9) #12
  call void @llvm.lifetime.start.p0(i64 4, ptr %10) #12
  %41 = call noundef i32 @_ZNK5arrow14BasicDecimal646DivideERKS0_PS0_S3_(ptr noundef nonnull align 8 dereferenceable(8) %14, ptr noundef nonnull align 8 dereferenceable(8) %8, ptr noundef %4, ptr noundef %9)
  store i32 %41, ptr %10, align 4, !tbaa !50
  br label %42

42:                                               ; preds = %43, %36
  br i1 false, label %43, label %44

43:                                               ; preds = %42
  br label %42, !llvm.loop !121

44:                                               ; preds = %42
  br label %45

45:                                               ; preds = %46, %44
  br i1 false, label %46, label %47

46:                                               ; preds = %45
  br label %45, !llvm.loop !122

47:                                               ; preds = %45
  br label %48

48:                                               ; preds = %49, %47
  br i1 false, label %49, label %50

49:                                               ; preds = %48
  br label %48, !llvm.loop !123

50:                                               ; preds = %48
  %51 = load i8, ptr %7, align 1, !tbaa !67, !range !78, !noundef !79
  %52 = trunc i8 %51 to i1
  br i1 %52, label %53, label %64

53:                                               ; preds = %50
  call void @llvm.lifetime.start.p0(i64 8, ptr %11) #12
  %54 = call noundef ptr @_ZN5arrow13DecimalTraitsINS_14BasicDecimal64EE18half_powers_of_tenEv()
  %55 = load i32, ptr %6, align 4, !tbaa !30
  %56 = sext i32 %55 to i64
  %57 = getelementptr inbounds %"class.arrow::BasicDecimal64", ptr %54, i64 %56
  call void @llvm.memcpy.p0.p0.i64(ptr align 8 %11, ptr align 8 %57, i64 8, i1 false)
  %58 = call noundef nonnull align 8 dereferenceable(8) ptr @_ZN5arrow14BasicDecimal643AbsEv(ptr noundef nonnull align 8 dereferenceable(8) %9)
  %59 = call noundef zeroext i1 @_ZN5arrowgeERKNS_14BasicDecimal64ES2_(ptr noundef nonnull align 8 dereferenceable(8) %58, ptr noundef nonnull align 8 dereferenceable(8) %11)
  br i1 %59, label %60, label %63

60:                                               ; preds = %53
  call void @llvm.lifetime.start.p0(i64 8, ptr %12) #12
  %61 = call noundef i64 @_ZNK5arrow17SmallBasicDecimalIlE4SignEv(ptr noundef nonnull align 8 dereferenceable(8) %14)
  call void @_ZN5arrow14BasicDecimal64CI2NS_17SmallBasicDecimalIlEEIllEET_(ptr noundef nonnull align 8 dereferenceable(8) %12, i64 noundef %61) #12
  %62 = call noundef nonnull align 8 dereferenceable(8) ptr @_ZN5arrow14BasicDecimal64pLERKS0_(ptr noundef nonnull align 8 dereferenceable(8) %4, ptr noundef nonnull align 8 dereferenceable(8) %12)
  call void @llvm.lifetime.end.p0(i64 8, ptr %12) #12
  br label %63

63:                                               ; preds = %60, %53
  call void @llvm.lifetime.end.p0(i64 8, ptr %11) #12
  br label %64

64:                                               ; preds = %63, %50
  call void @llvm.lifetime.end.p0(i64 4, ptr %10) #12
  call void @llvm.lifetime.end.p0(i64 8, ptr %9) #12
  call void @llvm.lifetime.end.p0(i64 8, ptr %8) #12
  br label %65

65:                                               ; preds = %64, %35
  %66 = getelementptr inbounds nuw %"class.arrow::BasicDecimal64", ptr %4, i32 0, i32 0
  %67 = getelementptr inbounds nuw %"class.arrow::SmallBasicDecimal.6", ptr %66, i32 0, i32 0
  %68 = load i64, ptr %67, align 8
  ret i64 %68
}