; Function Attrs: mustprogress nofree norecurse nosync nounwind willreturn memory(argmem: read) uwtable
define i64 @_ZNK5arrow14BasicDecimal6413ReduceScaleByEib(ptr noundef nonnull readonly align 8 captures(none) dereferenceable(8) %0, i32 noundef %1, i1 noundef zeroext %2) local_unnamed_addr #7 align 2 {
  %4 = icmp eq i32 %1, 0
  br i1 %4, label %5, label %7

5:                                                ; preds = %3
  %6 = load i64, ptr %0, align 8
  br label %22

7:                                                ; preds = %3
  %8 = sext i32 %1 to i64
  %9 = getelementptr inbounds %"class.arrow::BasicDecimal64", ptr @_ZN5arrowL21kDecimal64PowersOfTenE, i64 %8
  %10 = load i64, ptr %9, align 8
  %11 = icmp eq i64 %10, 0
  br i1 %11, label %_ZNK5arrow14BasicDecimal646DivideERKS0_PS0_S3_.exit.thread, label %_ZNK5arrow14BasicDecimal646DivideERKS0_PS0_S3_.exit

_ZNK5arrow14BasicDecimal646DivideERKS0_PS0_S3_.exit: ; preds = %7
  %12 = load i64, ptr %0, align 8, !tbaa !13
  %13 = sdiv i64 %12, %10
  %14 = srem i64 %12, %10
  br i1 %2, label %15, label %22

_ZNK5arrow14BasicDecimal646DivideERKS0_PS0_S3_.exit.thread: ; preds = %7
  br i1 %2, label %_ZN5arrow14BasicDecimal643AbsEv.exit, label %22

15:                                               ; preds = %_ZNK5arrow14BasicDecimal646DivideERKS0_PS0_S3_.exit
  %spec.select = tail call i64 @llvm.abs.i64(i64 %14, i1 true)
  br label %_ZN5arrow14BasicDecimal643AbsEv.exit

_ZN5arrow14BasicDecimal643AbsEv.exit:             ; preds = %_ZNK5arrow14BasicDecimal646DivideERKS0_PS0_S3_.exit.thread, %15
  %.sroa.09.31417 = phi i64 [ %13, %15 ], [ 0, %_ZNK5arrow14BasicDecimal646DivideERKS0_PS0_S3_.exit.thread ]
  %.sroa.05.1 = phi i64 [ %spec.select, %15 ], [ 0, %_ZNK5arrow14BasicDecimal646DivideERKS0_PS0_S3_.exit.thread ]
  %.in = getelementptr inbounds %"class.arrow::BasicDecimal64", ptr @_ZN5arrowL25kDecimal64HalfPowersOfTenE, i64 %8
  %16 = load i64, ptr %.in, align 8
  %.not = icmp slt i64 %.sroa.05.1, %16
  br i1 %.not, label %22, label %17

17:                                               ; preds = %_ZN5arrow14BasicDecimal643AbsEv.exit
  %18 = load i64, ptr %0, align 8, !tbaa !13
  %19 = ashr i64 %18, 63
  %20 = or i64 %19, 1
  %21 = add nsw i64 %20, %.sroa.09.31417
  br label %22

22:                                               ; preds = %_ZNK5arrow14BasicDecimal646DivideERKS0_PS0_S3_.exit, %_ZNK5arrow14BasicDecimal646DivideERKS0_PS0_S3_.exit.thread, %17, %_ZN5arrow14BasicDecimal643AbsEv.exit, %5
  %.sroa.09.0 = phi i64 [ %6, %5 ], [ %13, %_ZNK5arrow14BasicDecimal646DivideERKS0_PS0_S3_.exit ], [ 0, %_ZNK5arrow14BasicDecimal646DivideERKS0_PS0_S3_.exit.thread ], [ %21, %17 ], [ %.sroa.09.31417, %_ZN5arrow14BasicDecimal643AbsEv.exit ]
  ret i64 %.sroa.09.0
}